target datalayout = "e-m:e-p270:32:32-p271:32:32-p272:64:64-i64:64-i128:128-f80:128-n8:16:32:64-S128"
target triple = "x86_64-pc-linux-gnu"

%"class.std::__cxx11::basic_string" = type { %"struct.std::__cxx11::basic_string<char>::_Alloc_hider", i64, %union.anon }
%"struct.std::__cxx11::basic_string<char>::_Alloc_hider" = type { ptr }
%union.anon = type { i64, [8 x i8] }
%class.C_OStream = type { %"class.Imf_3_4::OStream", ptr }
%"class.Imf_3_4::OStream" = type { ptr, %"class.std::__cxx11::basic_string" }

; Function Attrs: mustprogress uwtable
define dso_local void @_ZN9C_OStream5writeEPKci(ptr noundef nonnull align 8 dereferenceable(48) %0, ptr noundef %1, i32 noundef %2) unnamed_addr #4 align 2 {
  %4 = alloca ptr, align 8
  %5 = alloca ptr, align 8
  %6 = alloca i32, align 4
  store ptr %0, ptr %4, align 8, !tbaa !21
  store ptr %1, ptr %5, align 8, !tbaa !9
  store i32 %2, ptr %6, align 4, !tbaa !11
  %7 = load ptr, ptr %4, align 8
  %8 = getelementptr inbounds nuw %class.C_OStream, ptr %7, i32 0, i32 1
  %9 = load ptr, ptr %8, align 8, !tbaa !23
  call void @clearerr(ptr noundef %9) #3
  %10 = load i32, ptr %6, align 4, !tbaa !11
  %11 = load ptr, ptr %5, align 8, !tbaa !9
  %12 = load i32, ptr %6, align 4, !tbaa !11
  %13 = sext i32 %12 to i64
  %14 = getelementptr inbounds nuw %class.C_OStream, ptr %7, i32 0, i32 1
  %15 = load ptr, ptr %14, align 8, !tbaa !23
  %16 = call i64 @fwrite(ptr noundef %11, i64 noundef 1, i64 noundef %13, ptr noundef %15)
  %17 = trunc i64 %16 to i32
  %18 = icmp ne i32 %10, %17
  br i1 %18, label %19, label %20

19:                                               ; preds = %3
  call void @_ZN7Iex_3_413throwErrnoExcEv()
  br label %20

20:                                               ; preds = %19, %3
  ret void
}