; Function Attrs: mustprogress uwtable
define dso_local void @_ZN9C_OStream5writeEPKci(ptr noundef nonnull readonly align 8 captures(none) dereferenceable(48) %0, ptr noundef captures(none) %1, i32 noundef %2) unnamed_addr #3 align 2 {
  %4 = getelementptr inbounds nuw i8, ptr %0, i64 40
  %5 = load ptr, ptr %4, align 8, !tbaa !15
  tail call void @clearerr(ptr noundef %5) #19
  %6 = sext i32 %2 to i64
  %7 = load ptr, ptr %4, align 8, !tbaa !15
  %8 = tail call i64 @fwrite(ptr noundef %1, i64 noundef 1, i64 noundef %6, ptr noundef %7)
  %9 = trunc i64 %8 to i32
  %.not = icmp eq i32 %2, %9
  br i1 %.not, label %11, label %10

10:                                               ; preds = %3
  tail call void @_ZN7Iex_3_413throwErrnoExcEv()
  br label %11

11:                                               ; preds = %10, %3
  ret void
}